; Function Attrs: nounwind uwtable
define internal noundef ptr @pysqlite_register_converter(ptr noundef %0, ptr noundef readonly captures(none) %1, i64 noundef %2) #2 {
  %4 = alloca ptr, align 8
  %or.cond = icmp eq i64 %2, 2
  br i1 %or.cond, label %7, label %5

5:                                                ; preds = %3
  %6 = tail call i32 @_PyArg_CheckPositional(ptr noundef nonnull @.str.111, i64 noundef %2, i64 noundef 2, i64 noundef 2) #5
  %.not = icmp eq i32 %6, 0
  br i1 %.not, label %pysqlite_register_converter_impl.exit, label %7

7:                                                ; preds = %3, %5
  %8 = load ptr, ptr %1, align 8, !tbaa !36
  %9 = getelementptr i8, ptr %8, i64 8
  %.val = load ptr, ptr %9, align 8, !tbaa !39
  %10 = getelementptr i8, ptr %.val, i64 168
  %.val12 = load i64, ptr %10, align 8, !tbaa !41
  %11 = and i64 %.val12, 268435456
  %.not11 = icmp eq i64 %11, 0
  br i1 %.not11, label %12, label %13

12:                                               ; preds = %7
  tail call void @_PyArg_BadArgument(ptr noundef nonnull @.str.111, ptr noundef nonnull @.str.119, ptr noundef nonnull @.str.115, ptr noundef nonnull %8) #5
  br label %pysqlite_register_converter_impl.exit

13:                                               ; preds = %7
  %14 = getelementptr i8, ptr %1, i64 8
  %15 = load ptr, ptr %14, align 8, !tbaa !36
  %16 = tail call ptr @PyModule_GetState(ptr noundef %0) #5
  %17 = getelementptr inbounds nuw i8, ptr %16, i64 208
  %18 = load ptr, ptr %17, align 8, !tbaa !53
  call void @llvm.lifetime.start.p0(i64 8, ptr nonnull %4)
  store ptr %8, ptr %4, align 8, !tbaa !36
  %19 = call ptr @PyObject_VectorcallMethod(ptr noundef %18, ptr noundef nonnull %4, i64 noundef -9223372036854775807, ptr noundef null) #5
  call void @llvm.lifetime.end.p0(i64 8, ptr nonnull %4)
  %.not.i = icmp eq ptr %19, null
  br i1 %.not.i, label %pysqlite_register_converter_impl.exit, label %20

20:                                               ; preds = %13
  %21 = getelementptr inbounds nuw i8, ptr %16, i64 80
  %22 = load ptr, ptr %21, align 8, !tbaa !33
  %23 = call i32 @PyDict_SetItem(ptr noundef %22, ptr noundef nonnull %19, ptr noundef %15) #5
  %.not10.i = icmp eq i32 %23, 0
  br i1 %.not10.i, label %24, label %29

24:                                               ; preds = %20
  %25 = load i32, ptr @_Py_NoneStruct, align 8, !tbaa !37
  %26 = icmp slt i32 %25, 0
  br i1 %26, label %29, label %27

27:                                               ; preds = %24
  %28 = add nuw i32 %25, 1
  store i32 %28, ptr @_Py_NoneStruct, align 8, !tbaa !37
  br label %29

29:                                               ; preds = %27, %24, %20
  %.0.ph.i = phi ptr [ @_Py_NoneStruct, %27 ], [ @_Py_NoneStruct, %24 ], [ null, %20 ]
  %30 = load i32, ptr %19, align 8, !tbaa !37
  %.not.i.i.i = icmp sgt i32 %30, -1
  br i1 %.not.i.i.i, label %31, label %pysqlite_register_converter_impl.exit

31:                                               ; preds = %29
  %32 = add nsw i32 %30, -1
  store i32 %32, ptr %19, align 8, !tbaa !37
  %33 = icmp eq i32 %32, 0
  br i1 %33, label %34, label %pysqlite_register_converter_impl.exit

34:                                               ; preds = %31
  call void @_Py_Dealloc(ptr noundef nonnull %19) #5
  br label %pysqlite_register_converter_impl.exit

pysqlite_register_converter_impl.exit:            ; preds = %34, %31, %29, %13, %5, %12
  %.0 = phi ptr [ null, %12 ], [ null, %5 ], [ %.0.ph.i, %29 ], [ %.0.ph.i, %31 ], [ %.0.ph.i, %34 ], [ null, %13 ]
  ret ptr %.0
}